; Function Attrs: nounwind uwtable
define noundef ptr @Gia_PolynCollectLastXor(ptr noundef %0, i32 noundef %1) local_unnamed_addr #0 {
  %3 = tail call noalias dereferenceable_or_null(16) ptr @malloc(i64 noundef 16) #8
  %4 = getelementptr inbounds nuw i8, ptr %3, i64 4
  store i32 0, ptr %4, align 4
  store i32 100, ptr %3, align 8
  %5 = tail call noalias dereferenceable_or_null(400) ptr @malloc(i64 noundef 400) #8
  %6 = getelementptr inbounds nuw i8, ptr %3, i64 8
  store ptr %5, ptr %6, align 8
  %7 = getelementptr i8, ptr %0, i64 72
  %.val = load ptr, ptr %7, align 8
  %8 = getelementptr i8, ptr %.val, i64 4
  %.val.val = load i32, ptr %8, align 4
  %9 = getelementptr i8, ptr %0, i64 32
  %.val18 = load ptr, ptr %9, align 8
  %10 = getelementptr i8, ptr %.val, i64 8
  %.val19.val = load ptr, ptr %10, align 8
  %11 = sext i32 %.val.val to i64
  %12 = getelementptr i32, ptr %.val19.val, i64 %11
  %13 = getelementptr i8, ptr %12, i64 -4
  %14 = load i32, ptr %13, align 4
  %15 = sext i32 %14 to i64
  %16 = getelementptr inbounds %struct.Gia_Obj_t_, ptr %.val18, i64 %15
  %17 = getelementptr inbounds nuw i8, ptr %0, i64 144
  %18 = load ptr, ptr %17, align 8
  %.not = icmp eq ptr %18, null
  br i1 %.not, label %20, label %19

19:                                               ; preds = %2
  tail call void @free(ptr noundef nonnull %18) #9
  store ptr null, ptr %17, align 8
  br label %20

20:                                               ; preds = %2, %19
  tail call void @Gia_ManCreateRefs(ptr noundef nonnull %0) #9
  tail call void @Gia_ManIncrementTravId(ptr noundef nonnull %0) #9
  %.val20 = load ptr, ptr %9, align 8
  %21 = ptrtoint ptr %16 to i64
  %22 = ptrtoint ptr %.val20 to i64
  %23 = sub i64 %21, %22
  %24 = sdiv exact i64 %23, 12
  %25 = trunc i64 %24 to i32
  %.val3.i = load i64, ptr %16, align 4
  %26 = trunc i64 %.val3.i to i32
  %27 = and i32 %26, 536870911
  %28 = sub nsw i32 %25, %27
  tail call void @Gia_PolynCollectXors_rec(ptr noundef nonnull %0, i32 noundef %28, ptr noundef nonnull %3)
  %29 = load i32, ptr %4, align 4
  %30 = icmp sgt i32 %29, 1
  br i1 %30, label %.lr.ph.i, label %Vec_IntReverseOrder.exit

.lr.ph.i:                                         ; preds = %20, %.lr.ph.i
  %indvars.iv.i = phi i64 [ %indvars.iv.next.i, %.lr.ph.i ], [ 0, %20 ]
  %31 = phi i32 [ %46, %.lr.ph.i ], [ %29, %20 ]
  %32 = load ptr, ptr %6, align 8
  %33 = getelementptr inbounds nuw i32, ptr %32, i64 %indvars.iv.i
  %34 = load i32, ptr %33, align 4
  %35 = trunc nuw nsw i64 %indvars.iv.i to i32
  %36 = xor i32 %35, -1
  %37 = add i32 %31, %36
  %38 = sext i32 %37 to i64
  %39 = getelementptr inbounds i32, ptr %32, i64 %38
  %40 = load i32, ptr %39, align 4
  store i32 %40, ptr %33, align 4
  %41 = load ptr, ptr %6, align 8
  %42 = load i32, ptr %4, align 4
  %43 = add i32 %42, %36
  %44 = sext i32 %43 to i64
  %45 = getelementptr inbounds i32, ptr %41, i64 %44
  store i32 %34, ptr %45, align 4
  %indvars.iv.next.i = add nuw nsw i64 %indvars.iv.i, 1
  %46 = load i32, ptr %4, align 4
  %47 = sdiv i32 %46, 2
  %48 = sext i32 %47 to i64
  %49 = icmp slt i64 %indvars.iv.next.i, %48
  br i1 %49, label %.lr.ph.i, label %Vec_IntReverseOrder.exit, !llvm.loop !6

Vec_IntReverseOrder.exit:                         ; preds = %.lr.ph.i, %20
  %50 = load ptr, ptr %17, align 8
  %.not17 = icmp eq ptr %50, null
  br i1 %.not17, label %52, label %51

51:                                               ; preds = %Vec_IntReverseOrder.exit
  tail call void @free(ptr noundef nonnull %50) #9
  store ptr null, ptr %17, align 8
  br label %52

52:                                               ; preds = %Vec_IntReverseOrder.exit, %51
  ret ptr %3
}